target datalayout = "e-m:e-p270:32:32-p271:32:32-p272:64:64-i64:64-i128:128-f80:128-n8:16:32:64-S128"
target triple = "x86_64-pc-linux-gnu"

%"class.sls::arith_plugin" = type { %"class.sls::plugin.base", %class.scoped_ptr, %class.scoped_ptr.0, %class.ref_vector }
%"class.sls::plugin.base" = type <{ ptr, ptr, ptr, i32 }>
%class.scoped_ptr = type { ptr }
%class.scoped_ptr.0 = type { ptr }
%class.ref_vector = type { %class.ref_vector_core }
%class.ref_vector_core = type { %class.ref_manager_wrapper, %class.ptr_vector }
%class.ref_manager_wrapper = type { ptr }
%class.ptr_vector = type { %class.vector }
%class.vector = type { ptr }
%"class.sls::plugin" = type <{ ptr, ptr, ptr, i32, [4 x i8] }>
%"class.sls::context" = type <{ ptr, ptr, %class.scoped_ptr_vector, %class.indexed_uint_set, %class.indexed_uint_set, %class.ref_vector, %class.svector, %class.params_ref, %class.vector.4, %class.svector.5, %class.svector.5, %class.indexed_uint_set, %class.random_gen, i8, i8, i8, i8, %class.ref_vector, %class.ref_vector, %class.ptr_vector, %"struct.sls::context::greater_depth", %"struct.sls::context::less_depth", %class.heap, %class.heap.9, %class.uint_set, %class.ref_vector, %"struct.sls::context::stats", [4 x i8], %class.ref_vector, i8, [7 x i8] }>
%class.scoped_ptr_vector = type { %class.ptr_vector.1 }
%class.ptr_vector.1 = type { %class.vector.2 }
%class.vector.2 = type { ptr }
%class.svector = type { %class.vector.3 }
%class.vector.3 = type { ptr }
%class.params_ref = type { ptr }
%class.vector.4 = type { ptr }
%class.svector.5 = type { %class.vector.6 }
%class.vector.6 = type { ptr }
%class.indexed_uint_set = type { i32, %class.svector, %class.svector }
%class.random_gen = type { i32 }
%"struct.sls::context::greater_depth" = type { ptr }
%"struct.sls::context::less_depth" = type { ptr }
%class.heap = type { %"struct.sls::context::greater_depth", %class.svector.7, %class.svector.7 }
%class.svector.7 = type { %class.vector.8 }
%class.vector.8 = type { ptr }
%class.heap.9 = type { %"struct.sls::context::less_depth", %class.svector.7, %class.svector.7 }
%class.uint_set = type { %class.svector }
%"struct.sls::context::stats" = type { i32, i32, i32 }

; Function Attrs: mustprogress nounwind uwtable
define linkonce_odr hidden void @_ZN6vectorIP4exprLb0EjEC2Ev(ptr noundef nonnull align 8 dereferenceable(8) %0) unnamed_addr #5 comdat align 2 {
  %2 = alloca ptr, align 8
  store ptr %0, ptr %2, align 8, !tbaa !89
  %3 = load ptr, ptr %2, align 8
  %4 = getelementptr inbounds nuw %class.vector, ptr %3, i32 0, i32 0
  store ptr null, ptr %4, align 8, !tbaa !91
  ret void
}

; Function Attrs: mustprogress nounwind uwtable
define linkonce_odr hidden void @_ZN10ptr_vectorI4exprEC2Ev(ptr noundef nonnull align 8 dereferenceable(8) %0) unnamed_addr #5 comdat align 2 {
  %2 = alloca ptr, align 8
  store ptr %0, ptr %2, align 8, !tbaa !113
  %3 = load ptr, ptr %2, align 8
  call void @_ZN6vectorIP4exprLb0EjEC2Ev(ptr noundef nonnull align 8 dereferenceable(8) %3) #3
  ret void
}

; Function Attrs: mustprogress uwtable
define linkonce_odr hidden void @_Z7deallocIN3sls10arith_baseI8rationalEEEvPT_(ptr noundef %0) #4 comdat {
  %2 = alloca ptr, align 8
  store ptr %0, ptr %2, align 8, !tbaa !24
  %3 = load ptr, ptr %2, align 8, !tbaa !24
  %4 = icmp eq ptr %3, null
  br i1 %4, label %5, label %6

5:                                                ; preds = %1
  br label %12

6:                                                ; preds = %1
  %7 = load ptr, ptr %2, align 8, !tbaa !24
  %8 = load ptr, ptr %7, align 8, !tbaa !10
  %9 = getelementptr inbounds ptr, ptr %8, i64 0
  %10 = load ptr, ptr %9, align 8
  call void %10(ptr noundef nonnull align 8 dereferenceable(792) %7) #3
  %11 = load ptr, ptr %2, align 8, !tbaa !24
  call void @_ZN6memory10deallocateEPv(ptr noundef %11)
  br label %12

12:                                               ; preds = %6, %5
  ret void
}

; Function Attrs: mustprogress uwtable
define linkonce_odr hidden void @_Z7deallocIN3sls10arith_baseI13checked_int64ILb1EEEEEvPT_(ptr noundef %0) #4 comdat {
  %2 = alloca ptr, align 8
  store ptr %0, ptr %2, align 8, !tbaa !18
  %3 = load ptr, ptr %2, align 8, !tbaa !18
  %4 = icmp eq ptr %3, null
  br i1 %4, label %5, label %6

5:                                                ; preds = %1
  br label %12

6:                                                ; preds = %1
  %7 = load ptr, ptr %2, align 8, !tbaa !18
  %8 = load ptr, ptr %7, align 8, !tbaa !10
  %9 = getelementptr inbounds ptr, ptr %8, i64 0
  %10 = load ptr, ptr %9, align 8
  call void %10(ptr noundef nonnull align 8 dereferenceable(672) %7) #3
  %11 = load ptr, ptr %2, align 8, !tbaa !18
  call void @_ZN6memory10deallocateEPv(ptr noundef %11)
  br label %12

12:                                               ; preds = %6, %5
  ret void
}

; Function Attrs: mustprogress nounwind uwtable
define linkonce_odr hidden void @_ZN15ref_vector_coreI4expr19ref_manager_wrapperIS0_11ast_managerEEC2ERKS3_(ptr noundef nonnull align 8 dereferenceable(16) %0, ptr noundef nonnull align 8 dereferenceable(8) %1) unnamed_addr #5 comdat align 2 {
  %3 = alloca ptr, align 8
  %4 = alloca ptr, align 8
  store ptr %0, ptr %3, align 8, !tbaa !66
  store ptr %1, ptr %4, align 8, !tbaa !92
  %5 = load ptr, ptr %3, align 8
  %6 = load ptr, ptr %4, align 8, !tbaa !92
  call void @llvm.memcpy.p0.p0.i64(ptr align 8 %5, ptr align 8 %6, i64 8, i1 false), !tbaa.struct !112
  %7 = getelementptr inbounds nuw %class.ref_vector_core, ptr %5, i32 0, i32 1
  call void @_ZN10ptr_vectorI4exprEC2Ev(ptr noundef nonnull align 8 dereferenceable(8) %7) #3
  ret void
}

; Function Attrs: mustprogress nounwind uwtable
define linkonce_odr hidden void @_ZN19ref_manager_wrapperI4expr11ast_managerEC2ERS1_(ptr noundef nonnull align 8 dereferenceable(8) %0, ptr noundef nonnull align 8 dereferenceable(976) %1) unnamed_addr #5 comdat align 2 {
  %3 = alloca ptr, align 8
  %4 = alloca ptr, align 8
  store ptr %0, ptr %3, align 8, !tbaa !92
  store ptr %1, ptr %4, align 8, !tbaa !65
  %5 = load ptr, ptr %3, align 8
  %6 = getelementptr inbounds nuw %class.ref_manager_wrapper, ptr %5, i32 0, i32 0
  %7 = load ptr, ptr %4, align 8, !tbaa !65
  store ptr %7, ptr %6, align 8, !tbaa !65
  ret void
}

; Function Attrs: mustprogress nounwind uwtable
define linkonce_odr hidden void @_ZN3sls6pluginD2Ev(ptr noundef nonnull align 8 dereferenceable(28) %0) unnamed_addr #5 comdat align 2 {
  %2 = alloca ptr, align 8
  store ptr %0, ptr %2, align 8, !tbaa !68
  ret void
}

; Function Attrs: mustprogress nounwind uwtable
define linkonce_odr hidden noundef ptr @_ZNK10scoped_ptrIN3sls10arith_baseI8rationalEEEptEv(ptr noundef nonnull align 8 dereferenceable(8) %0) #5 comdat align 2 {
  %2 = alloca ptr, align 8
  store ptr %0, ptr %2, align 8, !tbaa !22
  %3 = load ptr, ptr %2, align 8
  %4 = getelementptr inbounds nuw %class.scoped_ptr.0, ptr %3, i32 0, i32 0
  %5 = load ptr, ptr %4, align 8, !tbaa !26
  ret ptr %5
}

; Function Attrs: mustprogress uwtable
define linkonce_odr hidden noundef nonnull align 8 dereferenceable(8) ptr @_ZN10scoped_ptrIN3sls10arith_baseI8rationalEEEaSEPS3_(ptr noundef nonnull align 8 dereferenceable(8) %0, ptr noundef %1) #4 comdat align 2 {
  %3 = alloca ptr, align 8
  %4 = alloca ptr, align 8
  store ptr %0, ptr %3, align 8, !tbaa !22
  store ptr %1, ptr %4, align 8, !tbaa !24
  %5 = load ptr, ptr %3, align 8
  %6 = getelementptr inbounds nuw %class.scoped_ptr.0, ptr %5, i32 0, i32 0
  %7 = load ptr, ptr %6, align 8, !tbaa !26
  %8 = load ptr, ptr %4, align 8, !tbaa !24
  %9 = icmp ne ptr %7, %8
  br i1 %9, label %10, label %15

10:                                               ; preds = %2
  %11 = getelementptr inbounds nuw %class.scoped_ptr.0, ptr %5, i32 0, i32 0
  %12 = load ptr, ptr %11, align 8, !tbaa !26
  call void @_Z7deallocIN3sls10arith_baseI8rationalEEEvPT_(ptr noundef %12)
  %13 = load ptr, ptr %4, align 8, !tbaa !24
  %14 = getelementptr inbounds nuw %class.scoped_ptr.0, ptr %5, i32 0, i32 0
  store ptr %13, ptr %14, align 8, !tbaa !26
  br label %15

15:                                               ; preds = %10, %2
  ret ptr %5
}

; Function Attrs: mustprogress uwtable
define linkonce_odr hidden noundef nonnull align 8 dereferenceable(8) ptr @_ZN10scoped_ptrIN3sls10arith_baseI13checked_int64ILb1EEEEEaSEPS4_(ptr noundef nonnull align 8 dereferenceable(8) %0, ptr noundef %1) #4 comdat align 2 {
  %3 = alloca ptr, align 8
  %4 = alloca ptr, align 8
  store ptr %0, ptr %3, align 8, !tbaa !16
  store ptr %1, ptr %4, align 8, !tbaa !18
  %5 = load ptr, ptr %3, align 8
  %6 = getelementptr inbounds nuw %class.scoped_ptr, ptr %5, i32 0, i32 0
  %7 = load ptr, ptr %6, align 8, !tbaa !20
  %8 = load ptr, ptr %4, align 8, !tbaa !18
  %9 = icmp ne ptr %7, %8
  br i1 %9, label %10, label %15

10:                                               ; preds = %2
  %11 = getelementptr inbounds nuw %class.scoped_ptr, ptr %5, i32 0, i32 0
  %12 = load ptr, ptr %11, align 8, !tbaa !20
  call void @_Z7deallocIN3sls10arith_baseI13checked_int64ILb1EEEEEvPT_(ptr noundef %12)
  %13 = load ptr, ptr %4, align 8, !tbaa !18
  %14 = getelementptr inbounds nuw %class.scoped_ptr, ptr %5, i32 0, i32 0
  store ptr %13, ptr %14, align 8, !tbaa !20
  br label %15

15:                                               ; preds = %10, %2
  ret ptr %5
}

; Function Attrs: mustprogress uwtable
define linkonce_odr hidden void @_ZN10ref_vectorI4expr11ast_managerEC2ERS1_(ptr noundef nonnull align 8 dereferenceable(16) %0, ptr noundef nonnull align 8 dereferenceable(976) %1) unnamed_addr #4 comdat align 2 {
  %3 = alloca ptr, align 8
  %4 = alloca ptr, align 8
  %5 = alloca %class.ref_manager_wrapper, align 8
  store ptr %0, ptr %3, align 8, !tbaa !63
  store ptr %1, ptr %4, align 8, !tbaa !65
  %6 = load ptr, ptr %3, align 8
  call void @llvm.lifetime.start.p0(i64 8, ptr %5) #3
  %7 = load ptr, ptr %4, align 8, !tbaa !65
  call void @_ZN19ref_manager_wrapperI4expr11ast_managerEC2ERS1_(ptr noundef nonnull align 8 dereferenceable(8) %5, ptr noundef nonnull align 8 dereferenceable(976) %7)
  call void @_ZN15ref_vector_coreI4expr19ref_manager_wrapperIS0_11ast_managerEEC2ERKS3_(ptr noundef nonnull align 8 dereferenceable(16) %6, ptr noundef nonnull align 8 dereferenceable(8) %5)
  call void @llvm.lifetime.end.p0(i64 8, ptr %5) #3
  ret void
}

; Function Attrs: mustprogress nounwind uwtable
define linkonce_odr hidden noundef nonnull align 8 dereferenceable(976) ptr @_ZN3sls7context11get_managerEv(ptr noundef nonnull align 8 dereferenceable(321) %0) #5 comdat align 2 {
  %2 = alloca ptr, align 8
  store ptr %0, ptr %2, align 8, !tbaa !8
  %3 = load ptr, ptr %2, align 8
  %4 = getelementptr inbounds nuw %"class.sls::context", ptr %3, i32 0, i32 0
  %5 = load ptr, ptr %4, align 8, !tbaa !28
  ret ptr %5
}

; Function Attrs: mustprogress nounwind uwtable
define linkonce_odr hidden void @_ZN10scoped_ptrIN3sls10arith_baseI8rationalEEEC2EPS3_(ptr noundef nonnull align 8 dereferenceable(8) %0, ptr noundef %1) unnamed_addr #5 comdat align 2 {
  %3 = alloca ptr, align 8
  %4 = alloca ptr, align 8
  store ptr %0, ptr %3, align 8, !tbaa !22
  store ptr %1, ptr %4, align 8, !tbaa !24
  %5 = load ptr, ptr %3, align 8
  %6 = getelementptr inbounds nuw %class.scoped_ptr.0, ptr %5, i32 0, i32 0
  %7 = load ptr, ptr %4, align 8, !tbaa !24
  store ptr %7, ptr %6, align 8, !tbaa !26
  ret void
}

; Function Attrs: mustprogress nounwind uwtable
define linkonce_odr hidden void @_ZN10scoped_ptrIN3sls10arith_baseI13checked_int64ILb1EEEEEC2EPS4_(ptr noundef nonnull align 8 dereferenceable(8) %0, ptr noundef %1) unnamed_addr #5 comdat align 2 {
  %3 = alloca ptr, align 8
  %4 = alloca ptr, align 8
  store ptr %0, ptr %3, align 8, !tbaa !16
  store ptr %1, ptr %4, align 8, !tbaa !18
  %5 = load ptr, ptr %3, align 8
  %6 = getelementptr inbounds nuw %class.scoped_ptr, ptr %5, i32 0, i32 0
  %7 = load ptr, ptr %4, align 8, !tbaa !18
  store ptr %7, ptr %6, align 8, !tbaa !20
  ret void
}

; Function Attrs: mustprogress uwtable
define hidden void @_ZN3sls12arith_pluginC2ERNS_7contextE(ptr noundef nonnull align 8 dereferenceable(64) %0, ptr noundef nonnull align 8 dereferenceable(321) %1) unnamed_addr #4 align 2 personality ptr @__gxx_personality_v0 {
  %3 = alloca ptr, align 8
  %4 = alloca ptr, align 8
  %5 = alloca ptr, align 8
  %6 = alloca i32, align 4
  store ptr %0, ptr %3, align 8, !tbaa !3
  store ptr %1, ptr %4, align 8, !tbaa !8
  %7 = load ptr, ptr %3, align 8
  %8 = load ptr, ptr %4, align 8, !tbaa !8
  call void @_ZN3sls6pluginC2ERNS_7contextE(ptr noundef nonnull align 8 dereferenceable(28) %7, ptr noundef nonnull align 8 dereferenceable(321) %8)
  store ptr getelementptr inbounds inrange(-16, 176) ({ [24 x ptr] }, ptr @_ZTVN3sls12arith_pluginE, i32 0, i32 0, i32 2), ptr %7, align 8, !tbaa !10
  %9 = getelementptr inbounds nuw %"class.sls::arith_plugin", ptr %7, i32 0, i32 1
  invoke void @_ZN10scoped_ptrIN3sls10arith_baseI13checked_int64ILb1EEEEEC2EPS4_(ptr noundef nonnull align 8 dereferenceable(8) %9, ptr noundef null)
          to label %10 unwind label %41

10:                                               ; preds = %2
  %11 = getelementptr inbounds nuw %"class.sls::arith_plugin", ptr %7, i32 0, i32 2
  invoke void @_ZN10scoped_ptrIN3sls10arith_baseI8rationalEEEC2EPS3_(ptr noundef nonnull align 8 dereferenceable(8) %11, ptr noundef null)
          to label %12 unwind label %45

12:                                               ; preds = %10
  %13 = getelementptr inbounds nuw %"class.sls::arith_plugin", ptr %7, i32 0, i32 3
  %14 = load ptr, ptr %4, align 8, !tbaa !8
  %15 = invoke noundef nonnull align 8 dereferenceable(976) ptr @_ZN3sls7context11get_managerEv(ptr noundef nonnull align 8 dereferenceable(321) %14)
          to label %16 unwind label %49

16:                                               ; preds = %12
  invoke void @_ZN10ref_vectorI4expr11ast_managerEC2ERS1_(ptr noundef nonnull align 8 dereferenceable(16) %13, ptr noundef nonnull align 8 dereferenceable(976) %15)
          to label %17 unwind label %49

17:                                               ; preds = %16
  %18 = invoke noalias noundef ptr @_ZN6memory8allocateEm(i64 noundef 672)
          to label %19 unwind label %53

19:                                               ; preds = %17
  %20 = load ptr, ptr %4, align 8, !tbaa !8
  invoke void @_ZN3sls10arith_baseI13checked_int64ILb1EEEC1ERNS_7contextE(ptr noundef nonnull align 8 dereferenceable(672) %18, ptr noundef nonnull align 8 dereferenceable(321) %20)
          to label %21 unwind label %53

21:                                               ; preds = %19
  %22 = getelementptr inbounds nuw %"class.sls::arith_plugin", ptr %7, i32 0, i32 1
  %23 = invoke noundef nonnull align 8 dereferenceable(8) ptr @_ZN10scoped_ptrIN3sls10arith_baseI13checked_int64ILb1EEEEEaSEPS4_(ptr noundef nonnull align 8 dereferenceable(8) %22, ptr noundef %18)
          to label %24 unwind label %53

24:                                               ; preds = %21
  %25 = invoke noalias noundef ptr @_ZN6memory8allocateEm(i64 noundef 792)
          to label %26 unwind label %53

26:                                               ; preds = %24
  %27 = load ptr, ptr %4, align 8, !tbaa !8
  invoke void @_ZN3sls10arith_baseI8rationalEC1ERNS_7contextE(ptr noundef nonnull align 8 dereferenceable(792) %25, ptr noundef nonnull align 8 dereferenceable(321) %27)
          to label %28 unwind label %53

28:                                               ; preds = %26
  %29 = getelementptr inbounds nuw %"class.sls::arith_plugin", ptr %7, i32 0, i32 2
  %30 = invoke noundef nonnull align 8 dereferenceable(8) ptr @_ZN10scoped_ptrIN3sls10arith_baseI8rationalEEEaSEPS3_(ptr noundef nonnull align 8 dereferenceable(8) %29, ptr noundef %25)
          to label %31 unwind label %53

31:                                               ; preds = %28
  %32 = getelementptr inbounds nuw %"class.sls::arith_plugin", ptr %7, i32 0, i32 2
  %33 = invoke noundef ptr @_ZNK10scoped_ptrIN3sls10arith_baseI8rationalEEEptEv(ptr noundef nonnull align 8 dereferenceable(8) %32)
          to label %34 unwind label %53

34:                                               ; preds = %31
  %35 = load ptr, ptr %33, align 8, !tbaa !10
  %36 = getelementptr inbounds ptr, ptr %35, i64 2
  %37 = load ptr, ptr %36, align 8
  %38 = invoke noundef i32 %37(ptr noundef nonnull align 8 dereferenceable(28) %33)
          to label %39 unwind label %53

39:                                               ; preds = %34
  %40 = getelementptr inbounds nuw %"class.sls::plugin", ptr %7, i32 0, i32 3
  store i32 %38, ptr %40, align 8, !tbaa !12
  ret void

41:                                               ; preds = %2
  %42 = landingpad { ptr, i32 }
          cleanup
  %43 = extractvalue { ptr, i32 } %42, 0
  store ptr %43, ptr %5, align 8
  %44 = extractvalue { ptr, i32 } %42, 1
  store i32 %44, ptr %6, align 4
  br label %59

45:                                               ; preds = %10
  %46 = landingpad { ptr, i32 }
          cleanup
  %47 = extractvalue { ptr, i32 } %46, 0
  store ptr %47, ptr %5, align 8
  %48 = extractvalue { ptr, i32 } %46, 1
  store i32 %48, ptr %6, align 4
  br label %58

49:                                               ; preds = %16, %12
  %50 = landingpad { ptr, i32 }
          cleanup
  %51 = extractvalue { ptr, i32 } %50, 0
  store ptr %51, ptr %5, align 8
  %52 = extractvalue { ptr, i32 } %50, 1
  store i32 %52, ptr %6, align 4
  br label %57

53:                                               ; preds = %34, %31, %28, %26, %24, %21, %19, %17
  %54 = landingpad { ptr, i32 }
          cleanup
  %55 = extractvalue { ptr, i32 } %54, 0
  store ptr %55, ptr %5, align 8
  %56 = extractvalue { ptr, i32 } %54, 1
  store i32 %56, ptr %6, align 4
  call void @_ZN15ref_vector_coreI4expr19ref_manager_wrapperIS0_11ast_managerEED2Ev(ptr noundef nonnull align 8 dereferenceable(16) %13) #3
  br label %57

57:                                               ; preds = %53, %49
  call void @_ZN10scoped_ptrIN3sls10arith_baseI8rationalEEED2Ev(ptr noundef nonnull align 8 dereferenceable(8) %11) #3
  br label %58

58:                                               ; preds = %57, %45
  call void @_ZN10scoped_ptrIN3sls10arith_baseI13checked_int64ILb1EEEEED2Ev(ptr noundef nonnull align 8 dereferenceable(8) %9) #3
  br label %59

59:                                               ; preds = %58, %41
  call void @_ZN3sls6pluginD2Ev(ptr noundef nonnull align 8 dereferenceable(28) %7) #3
  br label %60

60:                                               ; preds = %59
  %61 = load ptr, ptr %5, align 8
  %62 = load i32, ptr %6, align 4
  %63 = insertvalue { ptr, i32 } poison, ptr %61, 0
  %64 = insertvalue { ptr, i32 } %63, i32 %62, 1
  resume { ptr, i32 } %64
}