; Function Attrs: mustprogress uwtable
define hidden void @_ZN3sls12arith_pluginC2ERNS_7contextE(ptr noundef nonnull align 8 dereferenceable(64) %0, ptr noundef nonnull align 8 dereferenceable(321) %1) unnamed_addr #3 align 2 personality ptr @__gxx_personality_v0 {
  tail call void @_ZN3sls6pluginC2ERNS_7contextE(ptr noundef nonnull align 8 dereferenceable(28) %0, ptr noundef nonnull align 8 dereferenceable(321) %1)
  store ptr getelementptr inbounds nuw inrange(-16, 176) (i8, ptr @_ZTVN3sls12arith_pluginE, i64 16), ptr %0, align 8, !tbaa !3
  %3 = getelementptr inbounds nuw i8, ptr %0, i64 32
  %4 = getelementptr inbounds nuw i8, ptr %0, i64 40
  %5 = getelementptr inbounds nuw i8, ptr %0, i64 48
  tail call void @llvm.memset.p0.i64(ptr noundef nonnull align 8 dereferenceable(16) %3, i8 0, i64 16, i1 false)
  %6 = load ptr, ptr %1, align 8, !tbaa !6
  %7 = ptrtoint ptr %6 to i64
  store i64 %7, ptr %5, align 8, !tbaa !46
  %8 = getelementptr inbounds nuw i8, ptr %0, i64 56
  store ptr null, ptr %8, align 8, !tbaa !47
  %9 = invoke noalias noundef ptr @_ZN6memory8allocateEm(i64 noundef 672)
          to label %10 unwind label %34

10:                                               ; preds = %2
  invoke void @_ZN3sls10arith_baseI13checked_int64ILb1EEEC1ERNS_7contextE(ptr noundef nonnull align 8 dereferenceable(672) %9, ptr noundef nonnull align 8 dereferenceable(321) %1)
          to label %11 unwind label %34

11:                                               ; preds = %10
  %12 = load ptr, ptr %3, align 8, !tbaa !48
  %.not.i = icmp eq ptr %12, %9
  br i1 %.not.i, label %_ZN10scoped_ptrIN3sls10arith_baseI13checked_int64ILb1EEEEEaSEPS4_.exit, label %13

13:                                               ; preds = %11
  %14 = icmp eq ptr %12, null
  br i1 %14, label %_Z7deallocIN3sls10arith_baseI13checked_int64ILb1EEEEEvPT_.exit.i, label %15

15:                                               ; preds = %13
  %16 = load ptr, ptr %12, align 8, !tbaa !3
  %17 = load ptr, ptr %16, align 8
  tail call void %17(ptr noundef nonnull align 8 dereferenceable(672) %12) #11
  invoke void @_ZN6memory10deallocateEPv(ptr noundef nonnull %12)
          to label %_Z7deallocIN3sls10arith_baseI13checked_int64ILb1EEEEEvPT_.exit.i unwind label %34

_Z7deallocIN3sls10arith_baseI13checked_int64ILb1EEEEEvPT_.exit.i: ; preds = %15, %13
  store ptr %9, ptr %3, align 8, !tbaa !48
  br label %_ZN10scoped_ptrIN3sls10arith_baseI13checked_int64ILb1EEEEEaSEPS4_.exit

_ZN10scoped_ptrIN3sls10arith_baseI13checked_int64ILb1EEEEEaSEPS4_.exit: ; preds = %_Z7deallocIN3sls10arith_baseI13checked_int64ILb1EEEEEvPT_.exit.i, %11
  %18 = invoke noalias noundef ptr @_ZN6memory8allocateEm(i64 noundef 792)
          to label %19 unwind label %34

19:                                               ; preds = %_ZN10scoped_ptrIN3sls10arith_baseI13checked_int64ILb1EEEEEaSEPS4_.exit
  invoke void @_ZN3sls10arith_baseI8rationalEC1ERNS_7contextE(ptr noundef nonnull align 8 dereferenceable(792) %18, ptr noundef nonnull align 8 dereferenceable(321) %1)
          to label %20 unwind label %34

20:                                               ; preds = %19
  %21 = load ptr, ptr %4, align 8, !tbaa !51
  %.not.i8 = icmp eq ptr %21, %18
  br i1 %.not.i8, label %_ZN10scoped_ptrIN3sls10arith_baseI8rationalEEEaSEPS3_.exit, label %22

22:                                               ; preds = %20
  %23 = icmp eq ptr %21, null
  br i1 %23, label %_Z7deallocIN3sls10arith_baseI8rationalEEEvPT_.exit.i, label %24

24:                                               ; preds = %22
  %25 = load ptr, ptr %21, align 8, !tbaa !3
  %26 = load ptr, ptr %25, align 8
  tail call void %26(ptr noundef nonnull align 8 dereferenceable(792) %21) #11
  invoke void @_ZN6memory10deallocateEPv(ptr noundef nonnull %21)
          to label %_Z7deallocIN3sls10arith_baseI8rationalEEEvPT_.exit.i unwind label %34

_Z7deallocIN3sls10arith_baseI8rationalEEEvPT_.exit.i: ; preds = %24, %22
  store ptr %18, ptr %4, align 8, !tbaa !51
  br label %_ZN10scoped_ptrIN3sls10arith_baseI8rationalEEEaSEPS3_.exit

_ZN10scoped_ptrIN3sls10arith_baseI8rationalEEEaSEPS3_.exit: ; preds = %_Z7deallocIN3sls10arith_baseI8rationalEEEvPT_.exit.i, %20
  %27 = phi ptr [ %18, %_Z7deallocIN3sls10arith_baseI8rationalEEEvPT_.exit.i ], [ %21, %20 ]
  %28 = load ptr, ptr %27, align 8, !tbaa !3
  %29 = getelementptr inbounds nuw i8, ptr %28, i64 16
  %30 = load ptr, ptr %29, align 8
  %31 = invoke noundef i32 %30(ptr noundef nonnull align 8 dereferenceable(28) %27)
          to label %32 unwind label %34

32:                                               ; preds = %_ZN10scoped_ptrIN3sls10arith_baseI8rationalEEEaSEPS3_.exit
  %33 = getelementptr inbounds nuw i8, ptr %0, i64 24
  store i32 %31, ptr %33, align 8, !tbaa !54
  ret void

34:                                               ; preds = %24, %15, %_ZN10scoped_ptrIN3sls10arith_baseI8rationalEEEaSEPS3_.exit, %19, %_ZN10scoped_ptrIN3sls10arith_baseI13checked_int64ILb1EEEEEaSEPS4_.exit, %10, %2
  %35 = landingpad { ptr, i32 }
          cleanup
  tail call void @_ZN15ref_vector_coreI4expr19ref_manager_wrapperIS0_11ast_managerEED2Ev(ptr noundef nonnull align 8 dereferenceable(16) %5) #11
  tail call void @_ZN10scoped_ptrIN3sls10arith_baseI8rationalEEED2Ev(ptr noundef nonnull align 8 dereferenceable(8) %4) #11
  tail call void @_ZN10scoped_ptrIN3sls10arith_baseI13checked_int64ILb1EEEEED2Ev(ptr noundef nonnull align 8 dereferenceable(8) %3) #11
  resume { ptr, i32 } %35
}